; ModuleID = '34/3380.c'
source_filename = "34/3380.c"
target datalayout = "e-m:e-p270:32:32-p271:32:32-p272:64:64-i64:64-f80:128-n8:16:32:64-S128"
target triple = "x86_64-pc-linux-gnu"

@.str = private unnamed_addr constant [3 x i8] c"%d\00", align 1
@.str.1 = private unnamed_addr constant [9 x i8] c"%d/2=%d\0A\00", align 1
@.str.2 = private unnamed_addr constant [11 x i8] c"%d*3+1=%d\0A\00", align 1
@.str.3 = private unnamed_addr constant [4 x i8] c"End\00", align 1

; Function Attrs: noinline nounwind uwtable
define dso_local void @main() #0 {
  %1 = alloca i32, align 4
  %2 = alloca i32, align 4
  %3 = call i32 (i8*, ...) @__isoc99_scanf(i8* getelementptr inbounds ([3 x i8], [3 x i8]* @.str, i64 0, i64 0), i32* %1)
  %4 = load i32, i32* %1, align 4
  store i32 %4, i32* %1, align 4
  br label %5

5:                                                ; preds = %32, %0
  %6 = load i32, i32* %1, align 4
  %7 = icmp ne i32 %6, 1
  br i1 %7, label %8, label %33

8:                                                ; preds = %5
  %9 = load i32, i32* %1, align 4
  %10 = srem i32 %9, 2
  %11 = icmp eq i32 %10, 0
  br i1 %11, label %12, label %19

12:                                               ; preds = %8
  %13 = load i32, i32* %1, align 4
  %14 = sdiv i32 %13, 2
  store i32 %14, i32* %2, align 4
  %15 = load i32, i32* %1, align 4
  %16 = load i32, i32* %2, align 4
  %17 = call i32 (i8*, ...) @printf(i8* getelementptr inbounds ([9 x i8], [9 x i8]* @.str.1, i64 0, i64 0), i32 %15, i32 %16)
  %18 = load i32, i32* %2, align 4
  store i32 %18, i32* %1, align 4
  br label %32

19:                                               ; preds = %8
  %20 = load i32, i32* %1, align 4
  %21 = srem i32 %20, 2
  %22 = icmp ne i32 %21, 0
  br i1 %22, label %23, label %31

23:                                               ; preds = %19
  %24 = load i32, i32* %1, align 4
  %25 = mul nsw i32 %24, 3
  %26 = add nsw i32 %25, 1
  store i32 %26, i32* %2, align 4
  %27 = load i32, i32* %1, align 4
  %28 = load i32, i32* %2, align 4
  %29 = call i32 (i8*, ...) @printf(i8* getelementptr inbounds ([11 x i8], [11 x i8]* @.str.2, i64 0, i64 0), i32 %27, i32 %28)
  %30 = load i32, i32* %2, align 4
  store i32 %30, i32* %1, align 4
  br label %31

31:                                               ; preds = %23, %19
  br label %32

32:                                               ; preds = %31, %12
  br label %5

33:                                               ; preds = %5
  %34 = load i32, i32* %1, align 4
  %35 = icmp eq i32 %34, 1
  br i1 %35, label %36, label %38

36:                                               ; preds = %33
  %37 = call i32 (i8*, ...) @printf(i8* getelementptr inbounds ([4 x i8], [4 x i8]* @.str.3, i64 0, i64 0))
  br label %38

38:                                               ; preds = %36, %33
  ret void
}

declare dso_local i32 @__isoc99_scanf(i8*, ...) #1

declare dso_local i32 @printf(i8*, ...) #1


!llvm.module.flags = !{!0}
!llvm.ident = !{!1}

!0 = !{i32 1, !"wchar_size", i32 4}
!1 = !{!"clang version 10.0.0-4ubuntu1 "}
